; Function Attrs: mustprogress uwtable
define void @_ZN3gmx19EnsembleTemperatureC2ERK10t_inputrec(ptr noundef nonnull align 4 captures(none) dereferenceable(8) initializes((4, 5)) %0, ptr noundef nonnull align 8 dereferenceable(880) %1) unnamed_addr #2 align 2 personality ptr @__gxx_personality_v0 {
  %3 = getelementptr inbounds nuw i8, ptr %0, i64 4
  store i8 0, ptr %3, align 4, !tbaa !40
  %4 = tail call noundef zeroext i1 @_Z31haveConstantEnsembleTemperatureRK10t_inputrec(ptr noundef nonnull align 8 dereferenceable(880) %1)
  br i1 %4, label %5, label %8

5:                                                ; preds = %2
  %6 = tail call noundef float @_Z27constantEnsembleTemperatureRK10t_inputrec(ptr noundef nonnull align 8 dereferenceable(880) %1)
  %7 = bitcast float %6 to i32
  %.sroa.0.0.insert.ext.i = zext i32 %7 to i64
  %.sroa.0.0.insert.insert.i = or disjoint i64 %.sroa.0.0.insert.ext.i, 4294967296
  store i64 %.sroa.0.0.insert.insert.i, ptr %0, align 4
  br label %_ZNSt8optionalIfEaSESt9nullopt_t.exit

8:                                                ; preds = %2
  %9 = load i8, ptr %3, align 4, !tbaa !40, !range !43, !noundef !44
  %10 = trunc nuw i8 %9 to i1
  br i1 %10, label %11, label %_ZNSt8optionalIfEaSESt9nullopt_t.exit

11:                                               ; preds = %8
  store i8 0, ptr %3, align 4, !tbaa !40
  br label %_ZNSt8optionalIfEaSESt9nullopt_t.exit

_ZNSt8optionalIfEaSESt9nullopt_t.exit:            ; preds = %11, %8, %5
  ret void
}